; Function Attrs: nounwind uwtable
define ptr @l_Lean_RBNode_fold___at_Lean_RBMap_size___spec__1___rarg(ptr noundef %0, ptr noundef %1) local_unnamed_addr #1 {
  br label %lean_dec.exit

lean_dec.exit:                                    ; preds = %lean_dec.exit.backedge, %2
  %.011 = phi ptr [ %1, %2 ], [ %17, %lean_dec.exit.backedge ]
  %.0 = phi ptr [ %0, %2 ], [ %.0.be, %lean_dec.exit.backedge ]
  %3 = ptrtoint ptr %.011 to i64
  %4 = and i64 %3, 1
  %.not.i12 = icmp eq i64 %4, 0
  br i1 %.not.i12, label %8, label %5

5:                                                ; preds = %lean_dec.exit
  %6 = lshr i64 %3, 1
  %7 = trunc i64 %6 to i32
  br label %lean_obj_tag.exit

8:                                                ; preds = %lean_dec.exit
  %9 = getelementptr i8, ptr %.011, i64 4
  %.val.i = load i32, ptr %9, align 4
  %10 = lshr i32 %.val.i, 24
  br label %lean_obj_tag.exit

lean_obj_tag.exit:                                ; preds = %5, %8
  %.0.i13 = phi i32 [ %7, %5 ], [ %10, %8 ]
  %11 = icmp eq i32 %.0.i13, 0
  br i1 %11, label %12, label %13

12:                                               ; preds = %lean_obj_tag.exit
  ret ptr %.0

13:                                               ; preds = %lean_obj_tag.exit
  %14 = getelementptr inbounds nuw i8, ptr %.011, i64 8
  %15 = load ptr, ptr %14, align 8, !tbaa !10
  %16 = getelementptr inbounds nuw i8, ptr %.011, i64 32
  %17 = load ptr, ptr %16, align 8, !tbaa !10
  %18 = tail call ptr @l_Lean_RBNode_fold___at_Lean_RBMap_size___spec__1___rarg(ptr noundef %.0, ptr noundef %15)
  %19 = ptrtoint ptr %18 to i64
  %20 = and i64 %19, 1
  %.not = icmp eq i64 %20, 0
  br i1 %.not, label %31, label %21, !prof !15

21:                                               ; preds = %13
  %22 = lshr i64 %19, 1
  %23 = add nuw i64 %22, 1
  %24 = icmp sgt i64 %23, -1
  br i1 %24, label %25, label %29, !prof !9

25:                                               ; preds = %21
  %26 = shl nuw i64 %23, 1
  %27 = or disjoint i64 %26, 1
  %28 = inttoptr i64 %27 to ptr
  br label %lean_dec.exit.backedge

lean_dec.exit.backedge:                           ; preds = %25, %29, %38, %37, %35
  %.0.be = phi ptr [ %28, %25 ], [ %30, %29 ], [ %32, %38 ], [ %32, %37 ], [ %32, %35 ]
  br label %lean_dec.exit

29:                                               ; preds = %21
  %30 = tail call ptr @lean_big_usize_to_nat(i64 noundef range(i64 0, -1) %23) #9
  br label %lean_dec.exit.backedge

31:                                               ; preds = %13
  %32 = tail call ptr @lean_nat_big_add(ptr noundef %18, ptr noundef nonnull inttoptr (i64 3 to ptr)) #9
  %33 = load i32, ptr %18, align 4, !tbaa !4
  %34 = icmp sgt i32 %33, 1
  br i1 %34, label %35, label %37, !prof !9

35:                                               ; preds = %31
  %36 = add nsw i32 %33, -1
  store i32 %36, ptr %18, align 4, !tbaa !4
  br label %lean_dec.exit.backedge

37:                                               ; preds = %31
  %.not.i = icmp eq i32 %33, 0
  br i1 %.not.i, label %lean_dec.exit.backedge, label %38

38:                                               ; preds = %37
  tail call void @lean_dec_ref_cold(ptr noundef nonnull %18) #9
  br label %lean_dec.exit.backedge
}